; Function Attrs: nofree nosync nounwind memory(readwrite, inaccessiblemem: none) uwtable
define i32 @Sfm_ObjDeref_rec(ptr noundef readonly captures(none) %0, i32 noundef %1) local_unnamed_addr #0 {
  %3 = getelementptr i8, ptr %0, i64 8
  %.val = load i32, ptr %3, align 8, !tbaa !3
  %.not = icmp slt i32 %1, %.val
  br i1 %.not, label %.critedge, label %4

4:                                                ; preds = %2
  %5 = getelementptr i8, ptr %0, i64 96
  %.val20 = load ptr, ptr %5, align 8, !tbaa !19
  %6 = sext i32 %1 to i64
  %7 = getelementptr inbounds %struct.Vec_Int_t_, ptr %.val20, i64 %6, i32 1
  %8 = load i32, ptr %7, align 4, !tbaa !20
  %9 = add nsw i32 %8, -1
  store i32 %9, ptr %7, align 4, !tbaa !20
  %10 = icmp sgt i32 %8, 1
  br i1 %10, label %.critedge, label %.preheader

.preheader:                                       ; preds = %4
  %11 = getelementptr i8, ptr %0, i64 64
  %.val1821 = load ptr, ptr %11, align 8, !tbaa !19
  %12 = getelementptr %struct.Vec_Int_t_, ptr %.val1821, i64 %6, i32 1
  %.val1.i22 = load i32, ptr %12, align 4, !tbaa !20
  %13 = icmp sgt i32 %.val1.i22, 0
  br i1 %13, label %.lr.ph, label %.critedge

.lr.ph:                                           ; preds = %.preheader, %.lr.ph
  %indvars.iv = phi i64 [ %indvars.iv.next, %.lr.ph ], [ 0, %.preheader ]
  %.val1825 = phi ptr [ %.val18, %.lr.ph ], [ %.val1821, %.preheader ]
  %.024 = phi i32 [ %18, %.lr.ph ], [ 1, %.preheader ]
  %14 = getelementptr %struct.Vec_Int_t_, ptr %.val1825, i64 %6, i32 2
  %.val2.i = load ptr, ptr %14, align 8, !tbaa !21
  %15 = getelementptr inbounds nuw i32, ptr %.val2.i, i64 %indvars.iv
  %16 = load i32, ptr %15, align 4, !tbaa !22
  %17 = tail call i32 @Sfm_ObjDeref_rec(ptr noundef nonnull %0, i32 noundef %16)
  %18 = add nsw i32 %17, %.024
  %indvars.iv.next = add nuw nsw i64 %indvars.iv, 1
  %.val18 = load ptr, ptr %11, align 8, !tbaa !19
  %19 = getelementptr %struct.Vec_Int_t_, ptr %.val18, i64 %6, i32 1
  %.val1.i = load i32, ptr %19, align 4, !tbaa !20
  %20 = sext i32 %.val1.i to i64
  %21 = icmp slt i64 %indvars.iv.next, %20
  br i1 %21, label %.lr.ph, label %.critedge, !llvm.loop !26

.critedge:                                        ; preds = %.lr.ph, %.preheader, %4, %2
  %.016 = phi i32 [ 0, %2 ], [ 0, %4 ], [ 1, %.preheader ], [ %18, %.lr.ph ]
  ret i32 %.016
}